Certificate:
    Data:
        Version: 3 (0x2)
        Serial Number: 1048577 (0x100001)
    Signature Algorithm: sha256WithRSAEncryption
        Issuer: O=Falcon, OU=Falcon/emailAddress=Falcon, L=Southampton, ST=Hampshire, C=EN, CN=Falcon CA
        Validity
            Not Before: Jul 12 13:37:11 2019 GMT
            Not After : Jul 11 13:37:11 2020 GMT
        Subject: C=EN, ST=Hampshire, O=Falcon, OU=Falcon, CN=oc.awsdomain.local
        Subject Public Key Info:
            Public Key Algorithm: rsaEncryption
                Public-Key: (4096 bit)
                Modulus:
                    00:c4:a7:cf:8e:e7:f8:da:4d:8d:c2:aa:18:21:36:
                    60:3c:5f:ee:25:d4:8d:ad:4d:e9:8f:a3:c9:0f:af:
                    b9:ed:c9:9e:b9:72:aa:55:75:b2:d5:03:04:af:76:
                    bb:5a:37:51:5d:83:59:47:f1:fd:68:12:48:32:4d:
                    aa:2e:6b:0e:05:b6:68:c9:96:bb:35:f6:b8:45:ec:
                    f8:e4:ff:7e:a1:01:9a:31:c7:ef:28:d8:15:6b:29:
                    b9:86:9b:7b:6a:c3:11:ac:d4:9b:4c:c5:ec:42:79:
                    5d:c2:82:c6:22:c9:0c:7a:5d:0f:85:b5:34:07:8a:
                    1c:8e:5b:a8:14:db:d8:02:e5:ee:01:cb:24:f8:5c:
                    e2:95:d0:10:15:71:bc:df:6f:59:63:18:9a:a2:46:
                    b5:b4:da:3c:d4:8d:4d:60:37:6a:ac:5e:ef:8f:87:
                    11:ab:38:38:3e:a8:99:7d:b1:40:f4:dd:39:72:2d:
                    9a:40:ea:d0:1e:eb:41:c7:ab:a7:5d:82:27:0f:08:
                    b9:64:06:f4:71:6e:63:39:97:89:0e:ee:99:39:9a:
                    f0:47:db:3c:3e:47:7a:c5:a1:84:0d:d1:c7:83:07:
                    d9:b3:f6:37:af:46:3d:92:b2:e3:35:92:dd:e7:49:
                    b8:8a:3a:4d:be:da:d5:26:96:24:1b:f9:96:b3:80:
                    08:b8:21:79:39:b3:ea:72:ed:c1:7e:8c:8b:12:a6:
                    9d:5d:da:a4:98:0a:ce:f4:ad:6e:c7:d6:c8:df:e5:
                    35:e0:01:a9:2e:7a:98:b1:5e:26:d5:2c:fe:b5:52:
                    c5:aa:9a:20:b1:93:54:03:28:c2:27:6a:43:4a:b5:
                    30:c4:cb:00:ee:0a:cf:84:ec:02:12:5d:65:82:03:
                    f1:7a:c9:d5:74:f5:91:84:ac:57:e1:e9:05:59:f6:
                    d6:8d:ab:8c:9f:e0:9b:e5:2f:0c:fc:90:7a:23:84:
                    92:48:0d:6d:14:50:66:0e:fc:f8:83:94:7d:86:8d:
                    c6:30:f7:66:45:c5:b2:4d:d0:5c:1c:7b:b1:bd:41:
                    ce:19:9f:3c:66:b8:43:3b:e7:68:60:ee:f0:5a:1f:
                    df:05:e9:65:6d:95:b6:e5:bd:ef:68:3e:48:37:ad:
                    6b:f8:f6:e0:8f:07:fb:f1:5f:8a:22:43:30:77:48:
                    d5:33:2c:ea:71:6d:30:07:22:02:d4:66:1a:1c:a0:
                    9a:6b:85:e8:ba:54:85:3c:e1:e9:84:df:5f:d9:af:
                    9b:f4:ac:f6:a1:c8:5e:3d:da:dc:e9:68:01:26:3c:
                    da:cb:fc:a2:cc:e3:2f:69:9a:21:93:3b:b3:e9:02:
                    a8:0f:91:53:e5:3c:c2:55:8b:ad:c3:9e:49:54:aa:
                    f9:03:ad
                Exponent: 65537 (0x10001)
        X509v3 extensions:
            X509v3 Basic Constraints: 
                CA:FALSE
            X509v3 Subject Key Identifier: 
                2E:09:50:6D:85:44:6F:4F:0B:28:66:01:5F:4A:8C:9F:69:F7:6D:B2
            X509v3 Key Usage: 
                Digital Signature, Non Repudiation, Key Encipherment, Data Encipherment, Key Agreement
            Netscape Cert Type: 
                SSL Client, SSL Server, S/MIME, Object Signing
            X509v3 Subject Alternative Name: 
                DNS:*.awsdomain.local, DNS:*.oc.awsdomain.local
    Signature Algorithm: sha256WithRSAEncryption
         53:95:f9:f8:83:2a:94:f7:74:8d:20:2f:98:63:a4:cd:82:3f:
         5b:da:f2:ec:b2:6e:b1:eb:e8:fd:02:74:75:ed:05:99:8c:f2:
         fa:80:a6:f2:41:c5:24:45:20:e8:aa:80:e9:1f:f5:50:a5:06:
         6f:2d:26:63:61:17:31:d7:af:91:12:25:3a:38:6b:78:2b:d3:
         5e:37:14:35:5b:a4:f7:fe:91:57:04:15:3c:53:02:d7:4d:5c:
         6f:24:18:8a:c4:b6:12:aa:d4:78:b2:42:fe:bf:53:72:da:87:
         b3:10:80:06:fc:32:df:71:f6:3e:e0:4c:ac:be:c2:aa:b7:72:
         28:2c:29:ae:95:92:2a:88:a2:69:73:3e:be:3e:7f:19:31:ab:
         bd:1b:96:70:d5:31:bd:ad:2f:2c:a6:69:45:99:fd:9a:72:e9:
         19:c4:2b:be:59:35:e8:ca:ae:b6:6f:e1:6b:5c:aa:73:2e:2b:
         0e:0d:54:68:e5:82:cd:32:f0:47:d1:a0:d6:ad:6d:c2:4e:58:
         c4:b2:76:a5:99:7c:dd:f9:2d:26:66:3e:42:4e:ab:69:07:fa:
         db:d6:b3:82:c8:11:b5:01:6c:9b:d8:5e:ef:a3:a7:cf:ee:33:
         d1:15:ab:f0:08:b9:93:fa:31:18:f2:3a:05:dc:8e:75:35:a7:
         44:76:02:e5:85:6e:14:22:f5:64:bf:c2:52:f3:dc:e0:80:b8:
         c3:20:b6:5a:db:cd:0e:23:c6:bd:30:f9:43:9b:3c:7a:7d:96:
         54:c2:77:8d:9f:01:21:db:86:a3:59:31:09:76:9f:06:ca:00:
         8e:fe:3a:56:ba:98:d0:76:5d:5f:c5:f9:fc:f0:eb:7e:a5:19:
         34:4e:ad:4c:65:51:e3:be:85:cd:49:bc:12:4c:e1:e3:09:54:
         6b:bf:a6:1d:bf:8b:9f:1a:4f:14:ca:65:04:10:90:d3:a7:72:
         9d:c2:ac:cd:be:4f:96:20:25:0d:7b:f7:49:b4:85:d5:15:11:
         f8:62:7f:a9:94:3f:14:7b:ab:82:08:18:d4:c4:55:7d:6e:c6:
         ee:80:75:34:dd:ce:6b:14:84:34:80:c8:d0:dc:2b:dd:b2:b7:
         e8:41:d6:cb:7e:85:df:f0:c5:e9:0f:dd:d7:48:cb:f1:32:92:
         ef:39:2c:6b:a2:70:9e:4d:2c:34:5c:ef:74:3d:0c:a3:f3:0c:
         71:8f:44:54:dd:ab:ca:ca:b0:e4:ca:b3:52:3b:97:5c:27:af:
         4e:a2:40:17:3d:19:6f:01:c7:ba:be:82:bd:ca:f9:e5:5f:17:
         6d:a3:36:3e:d8:ac:98:51:b8:d9:94:73:41:a7:c6:2d:1b:28:
         9f:60:95:ab:7c:4f:76:14
-----BEGIN CERTIFICATE-----
MIIF4zCCA8ugAwIBAgIDEAABMA0GCSqGSIb3DQEBCwUAMIGEMQ8wDQYDVQQKEwZG
YWxjb24xDzANBgNVBAsTBkZhbGNvbjEVMBMGCSqGSIb3DQEJARYGRmFsY29uMRQw
EgYDVQQHEwtTb3V0aGFtcHRvbjESMBAGA1UECBMJSGFtcHNoaXJlMQswCQYDVQQG
EwJFTjESMBAGA1UEAxMJRmFsY29uIENBMB4XDTE5MDcxMjEzMzcxMVoXDTIwMDcx
MTEzMzcxMVowYDELMAkGA1UEBhMCRU4xEjAQBgNVBAgTCUhhbXBzaGlyZTEPMA0G
A1UEChMGRmFsY29uMQ8wDQYDVQQLEwZGYWxjb24xGzAZBgNVBAMTEm9jLmF3c2Rv
bWFpbi5sb2NhbDCCAiIwDQYJKoZIhvcNAQEBBQADggIPADCCAgoCggIBAMSnz47n
+NpNjcKqGCE2YDxf7iXUja1N6Y+jyQ+vue3JnrlyqlV1stUDBK92u1o3UV2DWUfx
/WgSSDJNqi5rDgW2aMmWuzX2uEXs+OT/fqEBmjHH7yjYFWspuYabe2rDEazUm0zF
7EJ5XcKCxiLJDHpdD4W1NAeKHI5bqBTb2ALl7gHLJPhc4pXQEBVxvN9vWWMYmqJG
tbTaPNSNTWA3aqxe74+HEas4OD6omX2xQPTdOXItmkDq0B7rQcerp12CJw8IuWQG
9HFuYzmXiQ7umTma8EfbPD5HesWhhA3Rx4MH2bP2N69GPZKy4zWS3edJuIo6Tb7a
1SaWJBv5lrOACLgheTmz6nLtwX6MixKmnV3apJgKzvStbsfWyN/lNeABqS56mLFe
JtUs/rVSxaqaILGTVAMowidqQ0q1MMTLAO4Kz4TsAhJdZYID8XrJ1XT1kYSsV+Hp
BVn21o2rjJ/gm+UvDPyQeiOEkkgNbRRQZg78+IOUfYaNxjD3ZkXFsk3QXBx7sb1B
zhmfPGa4QzvnaGDu8Fof3wXpZW2VtuW972g+SDeta/j24I8H+/FfiiJDMHdI1TMs
6nFtMAciAtRmGhygmmuF6LpUhTzh6YTfX9mvm/Ss9qHIXj3a3OloASY82sv8oszj
L2maIZM7s+kCqA+RU+U8wlWLrcOeSVSq+QOtAgMBAAGjgYAwfjAJBgNVHRMEAjAA
MB0GA1UdDgQWBBQuCVBthURvTwsoZgFfSoyfafdtsjALBgNVHQ8EBAMCA/gwEQYJ
YIZIAYb4QgEBBAQDAgTwMDIGA1UdEQQrMCmCESouYXdzZG9tYWluLmxvY2FsghQq
Lm9jLmF3c2RvbWFpbi5sb2NhbDANBgkqhkiG9w0BAQsFAAOCAgEAU5X5+IMqlPd0
jSAvmGOkzYI/W9ry7LJusevo/QJ0de0FmYzy+oCm8kHFJEUg6KqA6R/1UKUGby0m
Y2EXMdevkRIlOjhreCvTXjcUNVuk9/6RVwQVPFMC101cbyQYisS2EqrUeLJC/r9T
ctqHsxCABvwy33H2PuBMrL7CqrdyKCwprpWSKoiiaXM+vj5/GTGrvRuWcNUxva0v
LKZpRZn9mnLpGcQrvlk16Mqutm/ha1yqcy4rDg1UaOWCzTLwR9Gg1q1twk5YxLJ2
pZl83fktJmY+Qk6raQf629azgsgRtQFsm9he76Onz+4z0RWr8Ai5k/oxGPI6BdyO
dTWnRHYC5YVuFCL1ZL/CUvPc4IC4wyC2WtvNDiPGvTD5Q5s8en2WVMJ3jZ8BIduG
o1kxCXafBsoAjv46VrqY0HZdX8X5/PDrfqUZNE6tTGVR476FzUm8Ekzh4wlUa7+m
Hb+LnxpPFMplBBCQ06dyncKszb5PliAlDXv3SbSF1RUR+GJ/qZQ/FHurgggY1MRV
fW7G7oB1NN3OaxSENIDI0Nwr3bK36EHWy36F3/DF6Q/d10jL8TKS7zksa6Jwnk0s
NFzvdD0Mo/MMcY9EVN2rysqw5MqzUjuXXCevTqJAFz0ZbwHHur6Cvcr55V8XbaM2
PtismFG42ZRzQafGLRson2CVq3xPdhQ=
-----END CERTIFICATE-----
