Certificate:
    Data:
        Version: 3 (0x2)
        Serial Number: 1048578 (0x100002)
    Signature Algorithm: sha256WithRSAEncryption
        Issuer: O=Falcon, OU=Falcon/emailAddress=Falcon, L=Southampton, ST=Hampshire, C=EN, CN=Falcon CA
        Validity
            Not Before: Jul 12 13:37:19 2019 GMT
            Not After : Jul 11 13:37:19 2020 GMT
        Subject: C=EN, ST=Hampshire, O=Falcon, OU=Falcon, CN=Falcon Client Cert
        Subject Public Key Info:
            Public Key Algorithm: rsaEncryption
                Public-Key: (4096 bit)
                Modulus:
                    00:a9:ae:cc:36:bf:b3:f2:72:b5:f0:2f:8f:2c:8d:
                    68:db:04:2b:a6:30:e1:9c:3d:e9:87:2a:5b:cf:41:
                    4b:ec:77:29:bf:e1:e9:6a:ac:f3:be:0f:3c:ab:8a:
                    6f:3a:11:90:8f:c4:31:2f:00:ef:18:c8:d3:7e:06:
                    a0:39:85:67:7b:e3:d0:5c:27:a4:bf:9a:64:70:55:
                    4b:b0:a1:aa:7e:a0:19:6c:c2:ed:c2:e7:ad:10:20:
                    37:24:f1:c0:3f:7c:2b:59:59:dc:a3:dc:2a:6e:66:
                    c7:73:20:21:5d:5b:e4:55:41:89:18:c3:44:23:a2:
                    d3:10:7d:38:28:38:04:07:81:4a:b2:49:a9:33:dd:
                    a6:ab:50:47:a7:2e:6b:39:69:81:1e:ce:d8:43:6f:
                    96:50:09:13:f0:54:07:3d:02:24:1c:d4:83:be:36:
                    ff:f4:a9:fe:ab:ae:c6:49:81:75:2e:e6:5e:8d:86:
                    1f:b6:de:13:9f:a7:45:f9:6b:d5:98:03:f1:0b:4b:
                    1f:9d:22:e6:e9:33:9a:92:2f:65:a9:7a:84:6e:fa:
                    ad:3d:2b:8c:b0:fb:70:28:00:95:d3:62:d3:13:2f:
                    2d:c3:16:a9:dd:67:04:00:05:c5:cb:69:fd:fb:ca:
                    00:8a:ee:98:77:71:39:60:40:04:c7:af:7a:3e:56:
                    e9:b6:5a:75:2b:07:ad:b9:9e:bd:20:d6:53:97:c9:
                    cf:67:e8:bc:a1:36:64:b9:ee:16:f5:a0:ac:de:ed:
                    6d:62:85:f2:14:6f:b8:4f:0a:97:78:cd:a2:1c:be:
                    d6:58:a7:09:60:06:a5:25:1c:91:7a:de:25:e5:20:
                    50:5b:23:ba:46:46:e6:31:71:db:47:8d:40:17:ca:
                    87:f3:43:a7:08:1d:81:e6:9c:bb:17:30:71:56:39:
                    b8:99:1a:bb:07:e6:bb:7b:a8:83:66:ab:5b:07:28:
                    69:7a:5f:7c:ce:c9:30:2f:f7:f9:e2:22:17:84:98:
                    2b:6b:98:8e:cc:7d:40:47:b8:fa:51:e4:a2:27:65:
                    80:54:2c:16:01:6b:11:0b:d6:0f:bb:a5:35:19:6d:
                    38:df:5d:b9:45:6e:0e:56:a7:04:2f:79:75:c5:91:
                    57:8c:0a:27:8e:55:36:29:24:39:83:b6:6a:92:df:
                    b9:7f:a0:a7:cb:4b:db:2d:16:d5:cb:a6:4a:94:39:
                    6f:8d:db:0b:f6:14:76:64:d0:31:60:a9:63:7e:24:
                    fc:a3:0d:4b:de:d9:01:2d:47:63:1e:3a:29:5c:48:
                    4c:6c:95:ea:a5:68:7d:85:4c:3e:5f:51:46:ef:b3:
                    61:d2:dd:60:ce:0a:c6:31:11:42:b6:1c:d0:69:0d:
                    90:1a:7d
                Exponent: 65537 (0x10001)
        X509v3 extensions:
            X509v3 Basic Constraints: 
                CA:FALSE
            X509v3 Subject Key Identifier: 
                F5:2F:04:3B:BA:B4:FD:32:45:8B:7B:0E:80:76:C4:C0:B8:EE:AD:0E
            X509v3 Key Usage: 
                Digital Signature, Non Repudiation, Key Encipherment, Data Encipherment, Key Agreement
            Netscape Cert Type: 
                SSL Client, SSL Server, S/MIME, Object Signing
            X509v3 Subject Alternative Name: 
                DNS:*.awsdomain.local, DNS:*.oc.awsdomain.local
    Signature Algorithm: sha256WithRSAEncryption
         b6:d6:f2:4e:d3:d1:88:0b:1b:c4:48:98:92:09:d5:d2:cd:4f:
         1f:94:db:7e:36:61:8d:50:7d:34:54:88:57:dc:ec:ac:d3:46:
         d6:dd:75:8c:91:78:85:bc:37:17:2a:52:d8:22:17:bb:95:f8:
         62:fa:c2:3b:59:db:de:82:5f:e2:2b:54:3b:85:63:0d:f3:71:
         92:02:15:97:e7:2c:58:c0:08:74:5a:37:d4:fa:ef:a0:19:af:
         28:ff:14:b9:ae:0c:d4:a2:d9:e1:8d:6e:6e:17:82:49:c2:13:
         6f:2b:ab:28:f9:cd:65:66:3f:fb:18:6a:aa:db:96:18:7d:82:
         21:f6:d1:ac:ab:e6:f6:1a:92:43:1e:b6:3e:61:1b:01:6f:73:
         f4:12:98:08:c1:0c:52:9f:d2:a1:e7:22:85:6c:8a:4e:d5:ac:
         d5:bb:2e:64:df:ea:b3:f7:37:c3:66:c3:29:ac:d4:13:1b:28:
         5a:46:18:b5:0d:c3:97:53:64:37:a9:4b:d4:dd:c8:33:1e:45:
         07:73:e9:1c:c4:e9:e6:a2:78:2c:75:d0:57:09:37:93:de:76:
         53:fd:f5:4a:80:09:9b:59:78:a0:88:46:5e:cd:96:34:5d:bf:
         76:1d:62:b3:33:b3:8e:da:39:56:0e:01:d7:1f:c2:11:51:ed:
         e9:dc:c9:2a:6e:99:cc:c6:bd:a7:0d:9c:e7:46:91:93:d5:c6:
         60:b5:ed:5e:fc:69:e0:a3:8b:45:65:a6:86:7d:c7:98:88:78:
         a2:17:4b:8d:19:41:c2:91:03:a7:1a:24:b0:7b:1f:f2:2d:f3:
         a7:a1:46:af:95:8f:67:94:70:7a:3b:1c:10:93:12:5f:27:71:
         dc:c3:e8:c9:41:e1:ae:00:52:e7:b3:2d:24:d4:c6:c6:ca:e5:
         6f:b8:2a:bc:f8:53:fb:a4:28:d6:38:a5:c7:c4:f8:95:85:05:
         ad:90:9f:d6:4c:ef:c8:f1:43:5e:d3:d9:a7:96:18:e6:ea:43:
         34:9a:0c:e3:48:ab:99:f4:e0:dd:f3:0d:38:5a:2d:02:80:20:
         74:12:8a:6c:9f:be:dc:b6:99:72:d2:11:0a:13:3b:30:a8:a7:
         1a:dc:6c:65:d6:9a:67:fd:76:27:75:95:0a:ad:6b:9d:85:48:
         47:9d:17:53:fa:b8:1d:1a:1d:1a:88:15:1e:e9:fa:6d:14:33:
         cd:a9:2f:59:d8:f1:e5:62:9c:e7:76:cb:09:45:f6:0e:34:ce:
         27:f6:06:90:43:f4:49:5b:b1:32:34:40:69:b4:d6:3f:ae:9c:
         24:44:11:08:df:22:42:b2:d1:31:0f:2c:c7:4f:b7:d1:47:e1:
         4c:02:d4:25:cc:8d:f9:50
-----BEGIN CERTIFICATE-----
MIIF4zCCA8ugAwIBAgIDEAACMA0GCSqGSIb3DQEBCwUAMIGEMQ8wDQYDVQQKEwZG
YWxjb24xDzANBgNVBAsTBkZhbGNvbjEVMBMGCSqGSIb3DQEJARYGRmFsY29uMRQw
EgYDVQQHEwtTb3V0aGFtcHRvbjESMBAGA1UECBMJSGFtcHNoaXJlMQswCQYDVQQG
EwJFTjESMBAGA1UEAxMJRmFsY29uIENBMB4XDTE5MDcxMjEzMzcxOVoXDTIwMDcx
MTEzMzcxOVowYDELMAkGA1UEBhMCRU4xEjAQBgNVBAgTCUhhbXBzaGlyZTEPMA0G
A1UEChMGRmFsY29uMQ8wDQYDVQQLEwZGYWxjb24xGzAZBgNVBAMTEkZhbGNvbiBD
bGllbnQgQ2VydDCCAiIwDQYJKoZIhvcNAQEBBQADggIPADCCAgoCggIBAKmuzDa/
s/JytfAvjyyNaNsEK6Yw4Zw96YcqW89BS+x3Kb/h6Wqs874PPKuKbzoRkI/EMS8A
7xjI034GoDmFZ3vj0FwnpL+aZHBVS7Chqn6gGWzC7cLnrRAgNyTxwD98K1lZ3KPc
Km5mx3MgIV1b5FVBiRjDRCOi0xB9OCg4BAeBSrJJqTPdpqtQR6cuazlpgR7O2ENv
llAJE/BUBz0CJBzUg742//Sp/quuxkmBdS7mXo2GH7beE5+nRflr1ZgD8QtLH50i
5ukzmpIvZal6hG76rT0rjLD7cCgAldNi0xMvLcMWqd1nBAAFxctp/fvKAIrumHdx
OWBABMevej5W6bZadSsHrbmevSDWU5fJz2fovKE2ZLnuFvWgrN7tbWKF8hRvuE8K
l3jNohy+1linCWAGpSUckXreJeUgUFsjukZG5jFx20eNQBfKh/NDpwgdgeacuxcw
cVY5uJkauwfmu3uog2arWwcoaXpffM7JMC/3+eIiF4SYK2uYjsx9QEe4+lHkoidl
gFQsFgFrEQvWD7ulNRltON9duUVuDlanBC95dcWRV4wKJ45VNikkOYO2apLfuX+g
p8tL2y0W1cumSpQ5b43bC/YUdmTQMWCpY34k/KMNS97ZAS1HYx46KVxITGyV6qVo
fYVMPl9RRu+zYdLdYM4KxjERQrYc0GkNkBp9AgMBAAGjgYAwfjAJBgNVHRMEAjAA
MB0GA1UdDgQWBBT1LwQ7urT9MkWLew6AdsTAuO6tDjALBgNVHQ8EBAMCA/gwEQYJ
YIZIAYb4QgEBBAQDAgTwMDIGA1UdEQQrMCmCESouYXdzZG9tYWluLmxvY2FsghQq
Lm9jLmF3c2RvbWFpbi5sb2NhbDANBgkqhkiG9w0BAQsFAAOCAgEAttbyTtPRiAsb
xEiYkgnV0s1PH5TbfjZhjVB9NFSIV9zsrNNG1t11jJF4hbw3FypS2CIXu5X4YvrC
O1nb3oJf4itUO4VjDfNxkgIVl+csWMAIdFo31PrvoBmvKP8Uua4M1KLZ4Y1ubheC
ScITbyurKPnNZWY/+xhqqtuWGH2CIfbRrKvm9hqSQx62PmEbAW9z9BKYCMEMUp/S
oecihWyKTtWs1bsuZN/qs/c3w2bDKazUExsoWkYYtQ3Dl1NkN6lL1N3IMx5FB3Pp
HMTp5qJ4LHXQVwk3k952U/31SoAJm1l4oIhGXs2WNF2/dh1iszOzjto5Vg4B1x/C
EVHt6dzJKm6ZzMa9pw2c50aRk9XGYLXtXvxp4KOLRWWmhn3HmIh4ohdLjRlBwpED
pxoksHsf8i3zp6FGr5WPZ5RwejscEJMSXydx3MPoyUHhrgBS57MtJNTGxsrlb7gq
vPhT+6Qo1jilx8T4lYUFrZCf1kzvyPFDXtPZp5YY5upDNJoM40irmfTg3fMNOFot
AoAgdBKKbJ++3LaZctIRChM7MKinGtxsZdaaZ/12J3WVCq1rnYVIR50XU/q4HRod
GogVHun6bRQzzakvWdjx5WKc53bLCUX2DjTOJ/YGkEP0SVuxMjRAabTWP66cJEQR
CN8iQrLRMQ8sx0+30UfhTALUJcyN+VA=
-----END CERTIFICATE-----
